; Function Attrs: mustprogress uwtable
define dso_local void @_ZNSt3__117__assoc_sub_state9set_valueEv(ptr noundef nonnull align 8 dereferenceable(116) %0) local_unnamed_addr #1 align 2 personality ptr @__gxx_personality_v0 {
  %2 = alloca %"class.std::exception_ptr", align 8
  %3 = getelementptr inbounds nuw i8, ptr %0, i64 24
  tail call void @_ZNSt3__15mutex4lockEv(ptr noundef nonnull align 8 dereferenceable(40) %3)
  %4 = getelementptr inbounds nuw i8, ptr %0, i64 112
  %5 = load i32, ptr %4, align 8, !tbaa !16
  %6 = and i32 %5, 1
  %.not.i = icmp eq i32 %6, 0
  br i1 %.not.i, label %_ZNKSt3__117__assoc_sub_state11__has_valueB8ne210000Ev.exit, label %_ZNKSt3__117__assoc_sub_state11__has_valueB8ne210000Ev.exit.thread

_ZNKSt3__117__assoc_sub_state11__has_valueB8ne210000Ev.exit: ; preds = %1
  %7 = getelementptr inbounds nuw i8, ptr %0, i64 16
  call void @llvm.lifetime.start.p0(i64 8, ptr nonnull %2) #21
  store ptr null, ptr %2, align 8, !tbaa !23
  %8 = load ptr, ptr %7, align 8, !tbaa !23
  %.not = icmp eq ptr %8, null
  call void @_ZNSt13exception_ptrD1Ev(ptr noundef nonnull align 8 dereferenceable(8) %2) #21
  call void @llvm.lifetime.end.p0(i64 8, ptr nonnull %2) #21
  br i1 %.not, label %_ZNSt3__111unique_lockINS_5mutexEED2B8ne210000Ev.exit2, label %_ZNKSt3__117__assoc_sub_state11__has_valueB8ne210000Ev.exit.thread

_ZNKSt3__117__assoc_sub_state11__has_valueB8ne210000Ev.exit.thread: ; preds = %1, %_ZNKSt3__117__assoc_sub_state11__has_valueB8ne210000Ev.exit
  invoke void @_ZNSt3__120__throw_future_errorB8ne210000ENS_11future_errcE(i32 noundef 2) #23
          to label %9 unwind label %_ZNSt3__111unique_lockINS_5mutexEED2B8ne210000Ev.exit

9:                                                ; preds = %_ZNKSt3__117__assoc_sub_state11__has_valueB8ne210000Ev.exit.thread
  unreachable

_ZNSt3__111unique_lockINS_5mutexEED2B8ne210000Ev.exit: ; preds = %_ZNKSt3__117__assoc_sub_state11__has_valueB8ne210000Ev.exit.thread
  %10 = landingpad { ptr, i32 }
          cleanup
  call void @_ZNSt3__15mutex6unlockEv(ptr noundef nonnull align 8 dereferenceable(40) %3) #21
  resume { ptr, i32 } %10

_ZNSt3__111unique_lockINS_5mutexEED2B8ne210000Ev.exit2: ; preds = %_ZNKSt3__117__assoc_sub_state11__has_valueB8ne210000Ev.exit
  %11 = load i32, ptr %4, align 8, !tbaa !16
  %12 = or i32 %11, 5
  store i32 %12, ptr %4, align 8, !tbaa !16
  %13 = getelementptr inbounds nuw i8, ptr %0, i64 64
  call void @_ZNSt3__118condition_variable10notify_allEv(ptr noundef nonnull align 8 dereferenceable(48) %13) #21
  call void @_ZNSt3__15mutex6unlockEv(ptr noundef nonnull align 8 dereferenceable(40) %3) #21
  ret void
}